target datalayout = "e-m:e-p270:32:32-p271:32:32-p272:64:64-i64:64-i128:128-f80:128-n8:16:32:64-S128"
target triple = "x86_64-pc-linux-gnu"

%"class.OpenColorIO_v2_5dev::MixingSliderImpl" = type { %"class.OpenColorIO_v2_5dev::MixingSlider", ptr, float, float }
%"class.OpenColorIO_v2_5dev::MixingSlider" = type { ptr }

; Function Attrs: inlinehint mustprogress nounwind uwtable
define linkonce_odr noundef float @_ZSt3powff(float noundef %0, float noundef %1) #3 comdat {
  %3 = alloca float, align 4
  %4 = alloca float, align 4
  store float %0, ptr %3, align 4, !tbaa !20
  store float %1, ptr %4, align 4, !tbaa !20
  %5 = load float, ptr %3, align 4, !tbaa !20
  %6 = load float, ptr %4, align 4, !tbaa !20
  %7 = call float @powf(float noundef %5, float noundef %6) #20, !tbaa !123
  ret float %7
}

; Function Attrs: noinline noreturn nounwind uwtable
define linkonce_odr hidden void @__clang_call_terminate(ptr noundef %0) #5 comdat {
  %2 = call ptr @__cxa_begin_catch(ptr %0) #20
  call void @_ZSt9terminatev() #21
  unreachable
}

; Function Attrs: mustprogress nounwind uwtable
define internal noundef float @_ZN19OpenColorIO_v2_5dev12_GLOBAL__N_118perceptualToLinearEf(float noundef %0) #0 {
  %2 = alloca float, align 4
  %3 = alloca float, align 4
  store float %0, ptr %3, align 4, !tbaa !20
  %4 = load float, ptr %3, align 4, !tbaa !20
  %5 = fcmp ole float %4, 0.000000e+00
  br i1 %5, label %6, label %9

6:                                                ; preds = %1
  %7 = load float, ptr %3, align 4, !tbaa !20
  %8 = fdiv float %7, 5.000000e-01
  store float %8, ptr %2, align 4
  br label %20

9:                                                ; preds = %1
  %10 = load float, ptr %3, align 4, !tbaa !20
  %11 = fcmp ogt float %10, 0x3FDB272480000000
  br i1 %11, label %12, label %17

12:                                               ; preds = %9
  %13 = load float, ptr %3, align 4, !tbaa !20
  %14 = fsub float %13, 0x3FEAAF0400000000
  %15 = fdiv float %14, 0x3FE19999A0000000
  %16 = call noundef float @_ZSt3powff(float noundef 1.000000e+01, float noundef %15)
  store float %16, ptr %2, align 4
  br label %20

17:                                               ; preds = %9
  %18 = load float, ptr %3, align 4, !tbaa !20
  %19 = call noundef float @_ZSt3powff(float noundef %18, float noundef 2.000000e+00)
  store float %19, ptr %2, align 4
  br label %20

20:                                               ; preds = %17, %12, %6
  %21 = load float, ptr %2, align 4
  ret float %21
}

; Function Attrs: mustprogress nounwind uwtable
define hidden noundef float @_ZNK19OpenColorIO_v2_5dev16MixingSliderImpl14sliderToMixingEf(ptr noundef nonnull align 8 dereferenceable(24) %0, float noundef %1) unnamed_addr #0 align 2 personality ptr @__gxx_personality_v0 {
  %3 = alloca ptr, align 8
  %4 = alloca float, align 4
  %5 = alloca float, align 4
  store ptr %0, ptr %3, align 8, !tbaa !3
  store float %1, ptr %4, align 4, !tbaa !20
  %6 = load ptr, ptr %3, align 8
  call void @llvm.lifetime.start.p0(i64 4, ptr %5) #20
  %7 = load ptr, ptr %6, align 8, !tbaa !10
  %8 = getelementptr inbounds ptr, ptr %7, i64 1
  %9 = load ptr, ptr %8, align 8
  %10 = call noundef float %9(ptr noundef nonnull align 8 dereferenceable(24) %6) #20
  %11 = load float, ptr %4, align 4, !tbaa !20
  %12 = load ptr, ptr %6, align 8, !tbaa !10
  %13 = getelementptr inbounds ptr, ptr %12, i64 3
  %14 = load ptr, ptr %13, align 8
  %15 = call noundef float %14(ptr noundef nonnull align 8 dereferenceable(24) %6) #20
  %16 = load ptr, ptr %6, align 8, !tbaa !10
  %17 = getelementptr inbounds ptr, ptr %16, i64 1
  %18 = load ptr, ptr %17, align 8
  %19 = call noundef float %18(ptr noundef nonnull align 8 dereferenceable(24) %6) #20
  %20 = fsub float %15, %19
  %21 = call float @llvm.fmuladd.f32(float %11, float %20, float %10)
  store float %21, ptr %5, align 4, !tbaa !20
  %22 = getelementptr inbounds nuw %"class.OpenColorIO_v2_5dev::MixingSliderImpl", ptr %6, i32 0, i32 1
  %23 = load ptr, ptr %22, align 8, !tbaa !19
  %24 = load ptr, ptr %23, align 8, !tbaa !10
  %25 = getelementptr inbounds ptr, ptr %24, i64 5
  %26 = load ptr, ptr %25, align 8
  %27 = call noundef zeroext i1 %26(ptr noundef nonnull align 8 dereferenceable(8) %23) #20
  br i1 %27, label %32, label %28

28:                                               ; preds = %2
  %29 = load float, ptr %5, align 4, !tbaa !20
  %30 = invoke noundef float @_ZN19OpenColorIO_v2_5dev12_GLOBAL__N_118perceptualToLinearEf(float noundef %29)
          to label %31 unwind label %36

31:                                               ; preds = %28
  br label %34

32:                                               ; preds = %2
  %33 = load float, ptr %5, align 4, !tbaa !20
  br label %34

34:                                               ; preds = %32, %31
  %35 = phi float [ %30, %31 ], [ %33, %32 ]
  call void @llvm.lifetime.end.p0(i64 4, ptr %5) #20
  ret float %35

36:                                               ; preds = %28
  %37 = landingpad { ptr, i32 }
          catch ptr null
  %38 = extractvalue { ptr, i32 } %37, 0
  call void @__clang_call_terminate(ptr %38) #21
  unreachable
}