; Function Attrs: mustprogress nounwind uwtable
define hidden noundef float @_ZNK19OpenColorIO_v2_5dev16MixingSliderImpl14sliderToMixingEf(ptr noundef nonnull align 8 dereferenceable(24) %0, float noundef %1) unnamed_addr #2 align 2 personality ptr @__gxx_personality_v0 {
  %3 = load ptr, ptr %0, align 8, !tbaa !3
  %4 = getelementptr inbounds nuw i8, ptr %3, i64 8
  %5 = load ptr, ptr %4, align 8
  %6 = tail call noundef float %5(ptr noundef nonnull align 8 dereferenceable(24) %0) #25
  %7 = load ptr, ptr %0, align 8, !tbaa !3
  %8 = getelementptr inbounds nuw i8, ptr %7, i64 24
  %9 = load ptr, ptr %8, align 8
  %10 = tail call noundef float %9(ptr noundef nonnull align 8 dereferenceable(24) %0) #25
  %11 = load ptr, ptr %0, align 8, !tbaa !3
  %12 = getelementptr inbounds nuw i8, ptr %11, i64 8
  %13 = load ptr, ptr %12, align 8
  %14 = tail call noundef float %13(ptr noundef nonnull align 8 dereferenceable(24) %0) #25
  %15 = fsub float %10, %14
  %16 = tail call float @llvm.fmuladd.f32(float %1, float %15, float %6)
  %17 = getelementptr inbounds nuw i8, ptr %0, i64 8
  %18 = load ptr, ptr %17, align 8, !tbaa !15
  %19 = load ptr, ptr %18, align 8, !tbaa !3
  %20 = getelementptr inbounds nuw i8, ptr %19, i64 40
  %21 = load ptr, ptr %20, align 8
  %22 = tail call noundef zeroext i1 %21(ptr noundef nonnull align 8 dereferenceable(8) %18) #25
  br i1 %22, label %_ZN19OpenColorIO_v2_5dev12_GLOBAL__N_118perceptualToLinearEf.exit, label %23

23:                                               ; preds = %2
  %24 = fcmp ugt float %16, 0.000000e+00
  br i1 %24, label %27, label %25

25:                                               ; preds = %23
  %26 = fmul float %16, 2.000000e+00
  br label %_ZN19OpenColorIO_v2_5dev12_GLOBAL__N_118perceptualToLinearEf.exit

27:                                               ; preds = %23
  %28 = fcmp ogt float %16, 0x3FDB272480000000
  br i1 %28, label %29, label %33

29:                                               ; preds = %27
  %30 = fadd float %16, 0xBFEAAF0400000000
  %31 = fdiv float %30, 0x3FE19999A0000000
  %32 = tail call noundef float @powf(float noundef 1.000000e+01, float noundef %31) #25, !tbaa !17
  br label %_ZN19OpenColorIO_v2_5dev12_GLOBAL__N_118perceptualToLinearEf.exit

33:                                               ; preds = %27
  %square.i = fmul float %16, %16
  br label %_ZN19OpenColorIO_v2_5dev12_GLOBAL__N_118perceptualToLinearEf.exit

_ZN19OpenColorIO_v2_5dev12_GLOBAL__N_118perceptualToLinearEf.exit: ; preds = %33, %29, %25, %2
  %34 = phi float [ %16, %2 ], [ %26, %25 ], [ %32, %29 ], [ %square.i, %33 ]
  ret float %34
}